; Function Attrs: null_pointer_is_valid sspstrong uwtable
define internal i32 @srvsvc_dissect_NetServerSetServiceBitsEx_request(ptr noundef %0, i32 noundef %1, ptr noundef %2, ptr noundef %3, ptr noundef initializes((72, 80)) %4, ptr noundef %5) #0 {
  %7 = getelementptr inbounds nuw i8, ptr %4, i64 72
  store ptr @.str.1253, ptr %7, align 8
  %8 = load i32, ptr @hf_srvsvc_srvsvc_NetServerSetServiceBitsEx_server_unc, align 4
  %9 = tail call i32 @dissect_ndr_toplevel_pointer(ptr noundef %0, i32 noundef %1, ptr noundef %2, ptr noundef %3, ptr noundef %4, ptr noundef %5, ptr noundef nonnull @srvsvc_dissect_element_NetServerSetServiceBitsEx_server_unc_, i32 noundef 2, ptr noundef nonnull @.str.1266, i32 noundef %8)
  %10 = tail call i32 @dissect_deferred_pointers(ptr noundef %2, ptr noundef %0, i32 noundef %9, ptr noundef %4, ptr noundef %5)
  %11 = load i32, ptr @hf_srvsvc_srvsvc_NetServerSetServiceBitsEx_emulated_server_unc, align 4
  %12 = tail call i32 @dissect_ndr_toplevel_pointer(ptr noundef %0, i32 noundef %10, ptr noundef %2, ptr noundef %3, ptr noundef %4, ptr noundef %5, ptr noundef nonnull @srvsvc_dissect_element_NetServerSetServiceBitsEx_emulated_server_unc_, i32 noundef 2, ptr noundef nonnull @.str.1374, i32 noundef %11)
  %13 = tail call i32 @dissect_deferred_pointers(ptr noundef %2, ptr noundef %0, i32 noundef %12, ptr noundef %4, ptr noundef %5)
  %14 = load i32, ptr @hf_srvsvc_srvsvc_NetServerSetServiceBitsEx_transport, align 4
  %15 = tail call i32 @dissect_ndr_toplevel_pointer(ptr noundef %0, i32 noundef %13, ptr noundef %2, ptr noundef %3, ptr noundef %4, ptr noundef %5, ptr noundef nonnull @srvsvc_dissect_element_NetServerSetServiceBitsEx_transport_, i32 noundef 2, ptr noundef nonnull @.str.1133, i32 noundef %14)
  %16 = tail call i32 @dissect_deferred_pointers(ptr noundef %2, ptr noundef %0, i32 noundef %15, ptr noundef %4, ptr noundef %5)
  %17 = load i32, ptr @hf_srvsvc_srvsvc_NetServerSetServiceBitsEx_servicebitsofinterest, align 4
  %18 = tail call i32 @PIDL_dissect_uint32(ptr noundef %0, i32 noundef %16, ptr noundef %2, ptr noundef %3, ptr noundef %4, ptr noundef %5, i32 noundef %17, i32 noundef 0)
  %19 = tail call i32 @dissect_deferred_pointers(ptr noundef %2, ptr noundef %0, i32 noundef %18, ptr noundef %4, ptr noundef %5)
  %20 = load i32, ptr @hf_srvsvc_srvsvc_NetServerSetServiceBitsEx_servicebits, align 4
  %21 = tail call i32 @PIDL_dissect_uint32(ptr noundef %0, i32 noundef %19, ptr noundef %2, ptr noundef %3, ptr noundef %4, ptr noundef %5, i32 noundef %20, i32 noundef 0)
  %22 = tail call i32 @dissect_deferred_pointers(ptr noundef %2, ptr noundef %0, i32 noundef %21, ptr noundef %4, ptr noundef %5)
  %23 = load i32, ptr @hf_srvsvc_srvsvc_NetServerSetServiceBitsEx_updateimmediately, align 4
  %24 = tail call i32 @PIDL_dissect_uint32(ptr noundef %0, i32 noundef %22, ptr noundef %2, ptr noundef %3, ptr noundef %4, ptr noundef %5, i32 noundef %23, i32 noundef 0)
  %25 = tail call i32 @dissect_deferred_pointers(ptr noundef %2, ptr noundef %0, i32 noundef %24, ptr noundef %4, ptr noundef %5)
  ret i32 %25
}